Certificate:
    Data:
        Version: 3 (0x2)
        Serial Number: 1111638594 (0x42424242)
        Signature Algorithm: ecdsa-with-SHA256
        Issuer: C=GB, ST=London, L=London, O=Google, OU=Eng, CN=FakeCertificateAuthority
        Validity
            Not Before: Feb 13 11:33:08 2018 GMT
            Not After : Dec 23 11:33:08 2027 GMT
        Subject: C=GB, ST=London, L=London, O=Google, OU=Eng, CN=FakeIntermediateAuthority
        Subject Public Key Info:
            Public Key Algorithm: id-ecPublicKey
                Public-Key: (256 bit)
                pub:
                    04:f1:bf:2d:e8:8c:66:40:e3:a8:d1:54:e0:42:49:
                    02:cb:dd:47:08:85:c2:67:41:4c:eb:f7:87:cd:8d:
                    a3:09:c8:18:cc:2e:30:53:16:32:aa:d5:9c:08:73:
                    c6:76:fa:fa:3a:38:e9:34:35:9c:51:d1:ee:12:81:
                    5d:98:5f:5d:5d
                ASN1 OID: prime256v1
                NIST CURVE: P-256
        X509v3 extensions:
            X509v3 Subject Key Identifier: 
                01:02:03:04
            X509v3 Authority Key Identifier: 
                01:02:03:04
            X509v3 Basic Constraints: critical
                CA:TRUE, pathlen:10
            X509v3 Key Usage: critical
                Digital Signature, Non Repudiation, Key Encipherment, Data Encipherment, Key Agreement, Certificate Sign, CRL Sign, Encipher Only, Decipher Only
            X509v3 Name Constraints: 
                Permitted:
                  DNS:.csr.pem
    Signature Algorithm: ecdsa-with-SHA256
    Signature Value:
        30:46:02:21:00:fd:11:41:d8:1f:2b:b5:49:8e:27:6e:70:93:
        2c:f1:c2:e7:b0:a2:40:e2:c6:89:45:fc:99:a5:9b:dc:21:fb:
        f6:02:21:00:b7:4f:98:bf:1f:dc:92:e7:db:7c:aa:33:7a:40:
        36:1d:58:19:aa:96:3d:5e:5b:46:5f:47:f6:e3:7d:75:19:4f
-----BEGIN CERTIFICATE-----
MIICNjCCAdugAwIBAgIEQkJCQjAKBggqhkjOPQQDAjBxMQswCQYDVQQGEwJHQjEP
MA0GA1UECBMGTG9uZG9uMQ8wDQYDVQQHEwZMb25kb24xDzANBgNVBAoTBkdvb2ds
ZTEMMAoGA1UECxMDRW5nMSEwHwYDVQQDExhGYWtlQ2VydGlmaWNhdGVBdXRob3Jp
dHkwHhcNMTgwMjEzMTEzMzA4WhcNMjcxMjIzMTEzMzA4WjByMQswCQYDVQQGEwJH
QjEPMA0GA1UECBMGTG9uZG9uMQ8wDQYDVQQHEwZMb25kb24xDzANBgNVBAoTBkdv
b2dsZTEMMAoGA1UECxMDRW5nMSIwIAYDVQQDExlGYWtlSW50ZXJtZWRpYXRlQXV0
aG9yaXR5MFkwEwYHKoZIzj0CAQYIKoZIzj0DAQcDQgAE8b8t6IxmQOOo0VTgQkkC
y91HCIXCZ0FM6/eHzY2jCcgYzC4wUxYyqtWcCHPGdvr6OjjpNDWcUdHuEoFdmF9d
XaNgMF4wDQYDVR0OBAYEBAECAwQwDwYDVR0jBAgwBoAEAQIDBDASBgNVHRMBAf8E
CDAGAQH/AgEKMA8GA1UdDwEB/wQFAwMH/4AwFwYDVR0eBBAwDqAMMAqCCC5jc3Iu
cGVtMAoGCCqGSM49BAMCA0kAMEYCIQD9EUHYHyu1SY4nbnCTLPHC57CiQOLGiUX8
maWb3CH79gIhALdPmL8f3JLn23yqM3pANh1YGaqWPV5bRl9H9uN9dRlP
-----END CERTIFICATE-----
