Certificate:
    Data:
        Version: 3 (0x2)
        Serial Number: 67554046 (0x406cafe)
        Signature Algorithm: ecdsa-with-SHA256
        Issuer: C=GB, ST=London, L=London, O=Google, OU=Eng, CN=FakeCertificateAuthority
        Validity
            Not Before: Dec  7 15:13:36 2016 GMT
            Not After : Dec  5 15:13:36 2026 GMT
        Subject: C=GB, ST=London, L=London, O=Google, OU=Eng, CN=FakeCertificateAuthority
        Subject Public Key Info:
            Public Key Algorithm: id-ecPublicKey
                Public-Key: (256 bit)
                pub:
                    04:f2:d3:07:ef:7e:df:cf:ce:f4:f4:0a:5b:bc:9e:
                    3f:cb:1c:fd:0c:46:dc:85:fb:c1:f6:d3:b2:ba:1d:
                    51:f1:98:6c:48:a8:15:46:45:63:ca:df:d6:c9:ac:
                    cf:60:3b:c7:4e:dd:b8:d2:16:ab:a0:09:24:1d:09:
                    66:1e:4d:eb:a1
                ASN1 OID: prime256v1
                NIST CURVE: P-256
        X509v3 extensions:
            X509v3 Subject Key Identifier: 
                01:02:03:04
            X509v3 Authority Key Identifier: 
                01:02:03:04
            X509v3 Basic Constraints: critical
                CA:TRUE, pathlen:10
            X509v3 Key Usage: critical
                Digital Signature, Non Repudiation, Key Encipherment, Data Encipherment, Key Agreement, Certificate Sign, CRL Sign, Encipher Only, Decipher Only
    Signature Algorithm: ecdsa-with-SHA256
    Signature Value:
        30:46:02:21:00:a6:28:49:39:43:6f:80:e4:43:a6:1e:3b:aa:
        89:5e:c2:25:60:2a:e1:39:bd:55:43:ae:4d:5c:a9:a6:ef:ac:
        65:02:21:00:c9:c5:08:c6:59:93:b4:86:70:a5:6b:54:2b:5b:
        fc:0c:88:6b:b0:23:07:2b:c7:0c:27:de:87:2d:96:80:d5:56
-----BEGIN CERTIFICATE-----
MIICHDCCAcGgAwIBAgIEBAbK/jAKBggqhkjOPQQDAjBxMQswCQYDVQQGEwJHQjEP
MA0GA1UECBMGTG9uZG9uMQ8wDQYDVQQHEwZMb25kb24xDzANBgNVBAoTBkdvb2ds
ZTEMMAoGA1UECxMDRW5nMSEwHwYDVQQDExhGYWtlQ2VydGlmaWNhdGVBdXRob3Jp
dHkwHhcNMTYxMjA3MTUxMzM2WhcNMjYxMjA1MTUxMzM2WjBxMQswCQYDVQQGEwJH
QjEPMA0GA1UECBMGTG9uZG9uMQ8wDQYDVQQHEwZMb25kb24xDzANBgNVBAoTBkdv
b2dsZTEMMAoGA1UECxMDRW5nMSEwHwYDVQQDExhGYWtlQ2VydGlmaWNhdGVBdXRo
b3JpdHkwWTATBgcqhkjOPQIBBggqhkjOPQMBBwNCAATy0wfvft/PzvT0Clu8nj/L
HP0MRtyF+8H207K6HVHxmGxIqBVGRWPK39bJrM9gO8dO3bjSFqugCSQdCWYeTeuh
o0cwRTANBgNVHQ4EBgQEAQIDBDAPBgNVHSMECDAGgAQBAgMEMBIGA1UdEwEB/wQI
MAYBAf8CAQowDwYDVR0PAQH/BAUDAwf/gDAKBggqhkjOPQQDAgNJADBGAiEApihJ
OUNvgORDph47qolewiVgKuE5vVVDrk1cqabvrGUCIQDJxQjGWZO0hnCla1QrW/wM
iGuwIwcrxwwn3octloDVVg==
-----END CERTIFICATE-----
