Certificate:
    Data:
        Version: 3 (0x2)
        Serial Number: 1111638594 (0x42424242)
        Signature Algorithm: ecdsa-with-SHA256
        Issuer: C=GB, ST=London, L=London, O=Google, OU=Eng, CN=FakeCertificateAuthority
        Validity
            Not Before: Feb 13 09:33:59 2018 GMT
            Not After : Dec 23 09:33:59 2027 GMT
        Subject: C=GB, ST=London, L=London, O=Google, OU=Eng, CN=FakeIntermediateAuthority
        Subject Public Key Info:
            Public Key Algorithm: id-ecPublicKey
                Public-Key: (256 bit)
                pub:
                    04:f1:bf:2d:e8:8c:66:40:e3:a8:d1:54:e0:42:49:
                    02:cb:dd:47:08:85:c2:67:41:4c:eb:f7:87:cd:8d:
                    a3:09:c8:18:cc:2e:30:53:16:32:aa:d5:9c:08:73:
                    c6:76:fa:fa:3a:38:e9:34:35:9c:51:d1:ee:12:81:
                    5d:98:5f:5d:5d
                ASN1 OID: prime256v1
                NIST CURVE: P-256
        X509v3 extensions:
            X509v3 Subject Key Identifier: 
                01:02:03:04
            X509v3 Authority Key Identifier: 
                01:02:03:04
            X509v3 Basic Constraints: critical
                CA:TRUE, pathlen:10
            X509v3 Policy Constraints: critical
                Require Explicit Policy:0
            X509v3 Key Usage: critical
                Digital Signature, Non Repudiation, Key Encipherment, Data Encipherment, Key Agreement, Certificate Sign, CRL Sign, Encipher Only, Decipher Only
    Signature Algorithm: ecdsa-with-SHA256
    Signature Value:
        30:44:02:20:4c:aa:27:8f:d9:83:32:76:40:17:a1:a8:00:1d:
        bc:d1:45:b2:53:c6:47:77:48:f1:c3:89:68:5d:f4:7f:5c:52:
        02:20:39:68:40:5c:fd:f0:2a:e2:3f:34:45:b3:19:2d:e3:4d:
        58:cd:76:42:19:09:cf:5c:1c:e5:f1:71:e0:39:62:b9
-----BEGIN CERTIFICATE-----
MIICLDCCAdOgAwIBAgIEQkJCQjAKBggqhkjOPQQDAjBxMQswCQYDVQQGEwJHQjEP
MA0GA1UECBMGTG9uZG9uMQ8wDQYDVQQHEwZMb25kb24xDzANBgNVBAoTBkdvb2ds
ZTEMMAoGA1UECxMDRW5nMSEwHwYDVQQDExhGYWtlQ2VydGlmaWNhdGVBdXRob3Jp
dHkwHhcNMTgwMjEzMDkzMzU5WhcNMjcxMjIzMDkzMzU5WjByMQswCQYDVQQGEwJH
QjEPMA0GA1UECBMGTG9uZG9uMQ8wDQYDVQQHEwZMb25kb24xDzANBgNVBAoTBkdv
b2dsZTEMMAoGA1UECxMDRW5nMSIwIAYDVQQDExlGYWtlSW50ZXJtZWRpYXRlQXV0
aG9yaXR5MFkwEwYHKoZIzj0CAQYIKoZIzj0DAQcDQgAE8b8t6IxmQOOo0VTgQkkC
y91HCIXCZ0FM6/eHzY2jCcgYzC4wUxYyqtWcCHPGdvr6OjjpNDWcUdHuEoFdmF9d
XaNYMFYwDQYDVR0OBAYEBAECAwQwDwYDVR0jBAgwBoAEAQIDBDASBgNVHRMBAf8E
CDAGAQH/AgEKMA8GA1UdJAEB/wQFMAOAAQAwDwYDVR0PAQH/BAUDAwf/gDAKBggq
hkjOPQQDAgNHADBEAiBMqieP2YMydkAXoagAHbzRRbJTxkd3SPHDiWhd9H9cUgIg
OWhAXP3wKuI/NEWzGS3jTVjNdkIZCc9cHOXxceA5Yrk=
-----END CERTIFICATE-----
