Certificate:
    Data:
        Version: 3 (0x2)
        Serial Number: 3735928559 (0xdeadbeef)
        Signature Algorithm: ecdsa-with-SHA256
        Issuer: C=GB, ST=London, L=London, O=Google, OU=Eng, CN=FakeIntermediateAuthority
        Validity
            Not Before: Feb 13 11:38:39 2018 GMT
            Not After : Mar 28 11:38:39 2025 GMT
        Subject: C=GB, ST=London, O=Google, OU=Eng, CN=leaf01.csr.pem
        Subject Public Key Info:
            Public Key Algorithm: id-ecPublicKey
                Public-Key: (256 bit)
                pub:
                    04:eb:37:4e:52:45:9c:46:d5:a8:b8:c5:ed:58:b9:
                    30:29:a6:70:8a:69:a0:26:5c:9e:2f:6e:b8:6b:23:
                    6c:84:e1:46:3a:98:36:82:44:a5:8a:17:8b:41:82:
                    32:f4:2d:e0:08:5b:7e:07:38:52:fc:47:56:28:27:
                    9b:ed:60:8b:ac
                ASN1 OID: prime256v1
                NIST CURVE: P-256
        X509v3 extensions:
            X509v3 Subject Key Identifier: 
                3F:B2:2F:41:FC:11:9A:D3:8D:A6:85:80:84:86:AE:7E:73:2E:69:5D
            X509v3 Authority Key Identifier: 
                01:02:03:04
            X509v3 Key Usage: critical
                Digital Signature, Non Repudiation, Key Encipherment, Data Encipherment, Key Agreement, Encipher Only, Decipher Only
            X509v3 Subject Alternative Name: 
                DNS:leaf01.csr.pem
    Signature Algorithm: ecdsa-with-SHA256
    Signature Value:
        30:46:02:21:00:b5:2a:f3:39:1e:06:b7:77:b2:ad:a8:83:1b:
        83:38:64:5e:3a:25:51:e9:57:1f:00:53:72:db:08:11:65:3d:
        f4:02:21:00:a1:4e:5d:b5:9a:8b:10:6e:15:a3:2a:bd:d9:80:
        91:96:7c:1a:4f:8f:91:dc:44:9f:13:ff:57:f0:5e:ce:32:34
-----BEGIN CERTIFICATE-----
MIICGjCCAb+gAwIBAgIFAN6tvu8wCgYIKoZIzj0EAwIwcjELMAkGA1UEBhMCR0Ix
DzANBgNVBAgTBkxvbmRvbjEPMA0GA1UEBxMGTG9uZG9uMQ8wDQYDVQQKEwZHb29n
bGUxDDAKBgNVBAsTA0VuZzEiMCAGA1UEAxMZRmFrZUludGVybWVkaWF0ZUF1dGhv
cml0eTAeFw0xODAyMTMxMTM4MzlaFw0yNTAzMjgxMTM4MzlaMFYxCzAJBgNVBAYT
AkdCMQ8wDQYDVQQIDAZMb25kb24xDzANBgNVBAoMBkdvb2dsZTEMMAoGA1UECwwD
RW5nMRcwFQYDVQQDDA5sZWFmMDEuY3NyLnBlbTBZMBMGByqGSM49AgEGCCqGSM49
AwEHA0IABOs3TlJFnEbVqLjF7Vi5MCmmcIppoCZcni9uuGsjbIThRjqYNoJEpYoX
i0GCMvQt4Ahbfgc4UvxHVignm+1gi6yjXjBcMB0GA1UdDgQWBBQ/si9B/BGa042m
hYCEhq5+cy5pXTAPBgNVHSMECDAGgAQBAgMEMA8GA1UdDwEB/wQFAwMH+YAwGQYD
VR0RBBIwEIIObGVhZjAxLmNzci5wZW0wCgYIKoZIzj0EAwIDSQAwRgIhALUq8zke
Brd3sq2ogxuDOGReOiVR6VcfAFNy2wgRZT30AiEAoU5dtZqLEG4Voyq92YCRlnwa
T4+R3ESfE/9X8F7OMjQ=
-----END CERTIFICATE-----
