Certificate:
    Data:
        Version: 3 (0x2)
        Serial Number: 4792439526061490155 (0x42822a5b866fbfeb)
        Signature Algorithm: sha256WithRSAEncryption
        Issuer: C=GB, ST=London, L=London, O=Google, OU=Eng, CN=FakeIntermediateAuthority
        Validity
            Not Before: May 13 14:26:44 2016 GMT
            Not After : Jul 12 14:26:44 2019 GMT
        Subject: C=US, ST=California, L=Mountain View, O=Google Inc, CN=*.google.com, SN=RFC5280 s4.2.1.9 'The pathLenConstraint field ... gives the maximum number of non-self-issued intermediate certificates that may follow this certificate in a valid certification path.', GN=Intermediate CA cert used to sign
        Subject Public Key Info:
            Public Key Algorithm: id-ecPublicKey
                Public-Key: (256 bit)
                pub:
                    04:c4:09:39:84:f5:15:8d:12:54:b2:02:9c:f9:01:
                    e2:6d:35:47:d4:0d:d0:11:61:66:09:35:1d:cb:12:
                    14:95:b2:3f:ff:35:bd:22:8e:4d:fc:38:50:2d:22:
                    d6:98:1e:ca:a0:23:af:a4:96:7e:32:d1:82:5f:31:
                    57:fb:28:ff:37
                ASN1 OID: prime256v1
                NIST CURVE: P-256
        X509v3 extensions:
            X509v3 Extended Key Usage: 
                TLS Web Server Authentication, TLS Web Client Authentication
            X509v3 Subject Alternative Name: 
                DNS:*.google.com, DNS:*.android.com, DNS:*.appengine.google.com, DNS:*.cloud.google.com, DNS:*.google-analytics.com, DNS:*.google.ca, DNS:*.google.cl, DNS:*.google.co.in, DNS:*.google.co.jp, DNS:*.google.co.uk, DNS:*.google.com.ar, DNS:*.google.com.au, DNS:*.google.com.br, DNS:*.google.com.co, DNS:*.google.com.mx, DNS:*.google.com.tr, DNS:*.google.com.vn, DNS:*.google.de, DNS:*.google.es, DNS:*.google.fr, DNS:*.google.hu, DNS:*.google.it, DNS:*.google.nl, DNS:*.google.pl, DNS:*.google.pt, DNS:*.googleadapis.com, DNS:*.googleapis.cn, DNS:*.googlecommerce.com, DNS:*.googlevideo.com, DNS:*.gstatic.cn, DNS:*.gstatic.com, DNS:*.gvt1.com, DNS:*.gvt2.com, DNS:*.metric.gstatic.com, DNS:*.urchin.com, DNS:*.url.google.com, DNS:*.youtube-nocookie.com, DNS:*.youtube.com, DNS:*.youtubeeducation.com, DNS:*.ytimg.com, DNS:android.clients.google.com, DNS:android.com, DNS:g.co, DNS:goo.gl, DNS:google-analytics.com, DNS:google.com, DNS:googlecommerce.com, DNS:urchin.com, DNS:youtu.be, DNS:youtube.com, DNS:youtubeeducation.com
            X509v3 Key Usage: 
                Digital Signature
            Authority Information Access: 
                CA Issuers - URI:http://pki.google.com/GIAG2.crt
                OCSP - URI:http://clients1.google.com/ocsp
            X509v3 Subject Key Identifier: 
                DB:F4:6E:63:EE:E2:DC:BE:BF:38:60:4F:98:31:D0:64:44:F1:63:D8
            X509v3 Basic Constraints: critical
                CA:FALSE
            X509v3 Certificate Policies: 
                Policy: 1.3.6.1.4.1.11129.2.5.1
                Policy: 2.23.140.1.2.2
            X509v3 CRL Distribution Points: 
                Full Name:
                  URI:http://pki.google.com/GIAG2.crl
    Signature Algorithm: sha256WithRSAEncryption
    Signature Value:
        0e:a6:6f:79:7d:38:4b:60:f0:c1:76:9c:4e:92:f5:24:ce:12:
        34:72:94:95:8d:cf:1c:0c:d6:78:6b:ee:66:2b:50:36:22:7a:
        be:ff:22:c7:dd:93:2c:40:83:2f:a0:37:29:8f:bb:98:22:bf:
        8e:c6:6c:b4:8b:8f:e9:1e:0f:bd:8a:df:df:f5:c9:aa:79:ac:
        00:e6:ca:a6:1a:74:8e:67:f9:5f:09:82:3c:f9:b4:5b:30:85:
        0b:ae:28:c2:b8:9c:23:7c:6a:59:66:ca:8e:bd:20:6e:20:e4:
        b3:46:f8:06:56:99:5c:b3:47:62:b6:e4:f6:92:10:85:ae:46:
        e5:c1:af:c1:a8:8a:b3:b6:f3:fb:2e:e1:26:56:98:e4:aa:de:
        29:0b:71:ef:0f:45:d4:c6:ce:4f:21:d6:59:18:89:df:7a:ac:
        a6:93:97:de:45:e5:87:06:e3:c7:a4:f2:14:39:b2:b1:99:0b:
        7e:85:cc:3a:62:c1:c4:fb:40:7c:e1:7b:71:f4:13:1e:e2:aa:
        94:7e:ba:a6:b5:65:e7:f6:e9:c1:c3:1a:92:62:c0:aa:c4:74:
        29:43:ee:f4:a6:6b:81:c6:50:7d:b3:a2:d2:b4:8c:c4:f6:cc:
        9a:0e:65:32:8f:14:65:8c:a0:30:20:d5:7a:cf:48:fb:84:a4:
        3a:30:fa:44
-----BEGIN CERTIFICATE-----
MIIH6DCCBtCgAwIBAgIIQoIqW4Zvv+swDQYJKoZIhvcNAQELBQAwcjELMAkGA1UE
BhMCR0IxDzANBgNVBAgMBkxvbmRvbjEPMA0GA1UEBwwGTG9uZG9uMQ8wDQYDVQQK
DAZHb29nbGUxDDAKBgNVBAsMA0VuZzEiMCAGA1UEAwwZRmFrZUludGVybWVkaWF0
ZUF1dGhvcml0eTAeFw0xNjA1MTMxNDI2NDRaFw0xOTA3MTIxNDI2NDRaMIIBWDEL
MAkGA1UEBhMCVVMxEzARBgNVBAgMCkNhbGlmb3JuaWExFjAUBgNVBAcMDU1vdW50
YWluIFZpZXcxEzARBgNVBAoMCkdvb2dsZSBJbmMxFTATBgNVBAMMDCouZ29vZ2xl
LmNvbTGBwzCBwAYDVQQEDIG4UkZDNTI4MCBzNC4yLjEuOSAnVGhlIHBhdGhMZW5D
b25zdHJhaW50IGZpZWxkIC4uLiBnaXZlcyB0aGUgbWF4aW11bSBudW1iZXIgb2Yg
bm9uLXNlbGYtaXNzdWVkIGludGVybWVkaWF0ZSBjZXJ0aWZpY2F0ZXMgdGhhdCBt
YXkgZm9sbG93IHRoaXMgY2VydGlmaWNhdGUgaW4gYSB2YWxpZCBjZXJ0aWZpY2F0
aW9uIHBhdGguJzEqMCgGA1UEKgwhSW50ZXJtZWRpYXRlIENBIGNlcnQgdXNlZCB0
byBzaWduMFkwEwYHKoZIzj0CAQYIKoZIzj0DAQcDQgAExAk5hPUVjRJUsgKc+QHi
bTVH1A3QEWFmCTUdyxIUlbI//zW9Io5N/DhQLSLWmB7KoCOvpJZ+MtGCXzFX+yj/
N6OCBGMwggRfMB0GA1UdJQQWMBQGCCsGAQUFBwMBBggrBgEFBQcDAjCCA0IGA1Ud
EQSCAzkwggM1ggwqLmdvb2dsZS5jb22CDSouYW5kcm9pZC5jb22CFiouYXBwZW5n
aW5lLmdvb2dsZS5jb22CEiouY2xvdWQuZ29vZ2xlLmNvbYIWKi5nb29nbGUtYW5h
bHl0aWNzLmNvbYILKi5nb29nbGUuY2GCCyouZ29vZ2xlLmNsgg4qLmdvb2dsZS5j
by5pboIOKi5nb29nbGUuY28uanCCDiouZ29vZ2xlLmNvLnVrgg8qLmdvb2dsZS5j
b20uYXKCDyouZ29vZ2xlLmNvbS5hdYIPKi5nb29nbGUuY29tLmJygg8qLmdvb2ds
ZS5jb20uY2+CDyouZ29vZ2xlLmNvbS5teIIPKi5nb29nbGUuY29tLnRygg8qLmdv
b2dsZS5jb20udm6CCyouZ29vZ2xlLmRlggsqLmdvb2dsZS5lc4ILKi5nb29nbGUu
ZnKCCyouZ29vZ2xlLmh1ggsqLmdvb2dsZS5pdIILKi5nb29nbGUubmyCCyouZ29v
Z2xlLnBsggsqLmdvb2dsZS5wdIISKi5nb29nbGVhZGFwaXMuY29tgg8qLmdvb2ds
ZWFwaXMuY26CFCouZ29vZ2xlY29tbWVyY2UuY29tghEqLmdvb2dsZXZpZGVvLmNv
bYIMKi5nc3RhdGljLmNugg0qLmdzdGF0aWMuY29tggoqLmd2dDEuY29tggoqLmd2
dDIuY29tghQqLm1ldHJpYy5nc3RhdGljLmNvbYIMKi51cmNoaW4uY29tghAqLnVy
bC5nb29nbGUuY29tghYqLnlvdXR1YmUtbm9jb29raWUuY29tgg0qLnlvdXR1YmUu
Y29tghYqLnlvdXR1YmVlZHVjYXRpb24uY29tggsqLnl0aW1nLmNvbYIaYW5kcm9p
ZC5jbGllbnRzLmdvb2dsZS5jb22CC2FuZHJvaWQuY29tggRnLmNvggZnb28uZ2yC
FGdvb2dsZS1hbmFseXRpY3MuY29tggpnb29nbGUuY29tghJnb29nbGVjb21tZXJj
ZS5jb22CCnVyY2hpbi5jb22CCHlvdXR1LmJlggt5b3V0dWJlLmNvbYIUeW91dHVi
ZWVkdWNhdGlvbi5jb20wDAYDVR0PBAUDAweAADBoBggrBgEFBQcBAQRcMFowKwYI
KwYBBQUHMAKGH2h0dHA6Ly9wa2kuZ29vZ2xlLmNvbS9HSUFHMi5jcnQwKwYIKwYB
BQUHMAGGH2h0dHA6Ly9jbGllbnRzMS5nb29nbGUuY29tL29jc3AwHQYDVR0OBBYE
FNv0bmPu4ty+vzhgT5gx0GRE8WPYMAwGA1UdEwEB/wQCMAAwIQYDVR0gBBowGDAM
BgorBgEEAdZ5AgUBMAgGBmeBDAECAjAwBgNVHR8EKTAnMCWgI6Ahhh9odHRwOi8v
cGtpLmdvb2dsZS5jb20vR0lBRzIuY3JsMA0GCSqGSIb3DQEBCwUAA4IBAQAOpm95
fThLYPDBdpxOkvUkzhI0cpSVjc8cDNZ4a+5mK1A2Inq+/yLH3ZMsQIMvoDcpj7uY
Ir+Oxmy0i4/pHg+9it/f9cmqeawA5sqmGnSOZ/lfCYI8+bRbMIULrijCuJwjfGpZ
ZsqOvSBuIOSzRvgGVplcs0dituT2khCFrkblwa/BqIqztvP7LuEmVpjkqt4pC3Hv
D0XUxs5PIdZZGInfeqymk5feReWHBuPHpPIUObKxmQt+hcw6YsHE+0B84Xtx9BMe
4qqUfrqmtWXn9unBwxqSYsCqxHQpQ+70pmuBxlB9s6LStIzE9syaDmUyjxRljKAw
INV6z0j7hKQ6MPpE
-----END CERTIFICATE-----
