Certificate:
    Data:
        Version: 3 (0x2)
        Serial Number: 1519231704392397 (0x565bbb21262cd)
        Signature Algorithm: sha256WithRSAEncryption
        Issuer: C=GB, L=London, O=Google Certificate Transparency (Precert Signing), serialNumber=1519231704173487
        Validity
            Not Before: Feb 21 16:48:24 2018 GMT
            Not After : Dec  1 20:33:27 2018 GMT
        Subject: C=GB, L=London, O=Google Certificate Transparency, serialNumber=1519231704392397
        Subject Public Key Info:
            Public Key Algorithm: rsaEncryption
                Public-Key: (2048 bit)
                Modulus:
                    00:a9:ca:3f:d4:cf:ea:19:04:b8:3f:9d:d6:b3:de:
                    03:c9:b1:a3:9c:45:61:f7:e1:09:c1:22:b4:ff:0f:
                    b5:39:7b:1b:64:6a:16:b9:dd:3d:e0:24:ce:0b:ce:
                    c4:f0:77:26:b8:71:ec:bb:4c:b6:0d:08:bd:2f:32:
                    ed:2c:b5:a8:3a:83:a2:ed:7f:3a:b2:60:c0:27:96:
                    31:cd:7f:29:29:de:b8:63:fc:19:35:f4:46:ac:b8:
                    cf:cf:8b:b2:20:4d:fe:d3:03:6e:df:78:46:e8:b2:
                    09:e9:6d:20:06:87:1a:6b:0d:79:85:d5:df:86:b2:
                    0f:7b:d2:20:04:1b:b4:b5:0e:0f:7f:4a:aa:b2:56:
                    3b:4b:50:ff:f9:ec:84:1b:85:95:e6:e2:52:b0:cf:
                    ee:b8:ab:3e:eb:18:61:6d:2c:b4:92:a2:08:a7:8e:
                    46:11:ef:2f:7f:c8:f2:60:98:18:d3:b4:5c:85:8c:
                    a4:04:87:d9:2f:4b:18:cc:20:f8:04:0c:d7:7c:21:
                    0b:52:8b:eb:91:06:b9:5b:38:4d:ad:2b:3b:e4:e5:
                    f1:88:b4:8a:cd:11:c1:d5:26:81:d4:86:b6:5d:1e:
                    bc:f4:f3:c9:45:db:03:59:f5:06:99:0b:71:24:39:
                    13:74:71:63:73:ba:19:ef:56:86:fb:66:83:db:c0:
                    26:23
                Exponent: 65537 (0x10001)
        X509v3 extensions:
            X509v3 Extended Key Usage: 
                TLS Web Server Authentication
            X509v3 Subject Alternative Name: 
                DNS:flowers-to-the-world.com
            X509v3 Basic Constraints: critical
                CA:FALSE
            X509v3 Authority Key Identifier: 
                4A:08:CF:C0:8E:1D:05:BB:A1:45:8C:9F:45:E2:05:56:2B:6A:23:FE
            X509v3 Subject Key Identifier: 
                56:36:25:EB:00:DE:CB:70:F1:BE:64:C6:D8:72:F8:BD:D8:94:B7:E3
            CT Precertificate Poison: critical
                NULL
    Signature Algorithm: sha256WithRSAEncryption
    Signature Value:
        0b:f2:10:50:c8:01:6a:f4:51:1b:19:ce:b2:4b:64:42:fc:a7:
        a1:4c:4f:35:71:63:f3:0e:bc:63:fc:40:c5:c0:eb:13:55:12:
        5c:58:9c:33:c5:df:62:44:44:09:7e:a6:84:7b:b3:20:72:85:
        51:5c:12:3a:f0:ed:fd:85:4e:53:1c:d3:8f:a1:4f:f8:6c:63:
        38:bc:70:c0:26:7d:7f:4a:03:7e:b1:50:15:63:ca:ab:ea:c2:
        87:f1:4f:0a:16:61:d7:fe:78:66:56:d0:41:bc:62:9d:69:33:
        b8:94:cb:d6:dd:96:1d:ec:81:d3:a9:99:3f:59:e5:71:82:47:
        0b:dd:5b:5f:a6:72:db:f4:24:c2:83:75:6c:f1:06:a6:32:34:
        c9:cd:8e:f8:c7:06:69:22:b8:77:83:0c:61:6c:57:6c:ea:fb:
        05:7a:e1:1c:09:6b:67:95:ae:79:0c:0c:c5:75:9a:c7:0b:e8:
        ac:cd:44:b3:cf:d9:9a:4d:cf:ff:07:ed:23:e8:72:4f:9f:93:
        87:19:ad:da:a3:fb:42:33:16:df:ba:8b:14:a8:2b:29:6d:c8:
        3f:a7:91:b5:a3:44:66:38:8b:26:e8:a3:f9:cf:81:34:35:21:
        00:92:d8:e3:d5:1d:6c:37:36:28:c5:0f:c8:6a:80:09:d8:bf:
        3d:03:9f:e9
-----BEGIN CERTIFICATE-----
MIID+jCCAuKgAwIBAgIHBWW7shJizTANBgkqhkiG9w0BAQsFADB1MQswCQYDVQQG
EwJHQjEPMA0GA1UEBwwGTG9uZG9uMTowOAYDVQQKDDFHb29nbGUgQ2VydGlmaWNh
dGUgVHJhbnNwYXJlbmN5IChQcmVjZXJ0IFNpZ25pbmcpMRkwFwYDVQQFExAxNTE5
MjMxNzA0MTczNDg3MB4XDTE4MDIyMTE2NDgyNFoXDTE4MTIwMTIwMzMyN1owYzEL
MAkGA1UEBhMCR0IxDzANBgNVBAcMBkxvbmRvbjEoMCYGA1UECgwfR29vZ2xlIENl
cnRpZmljYXRlIFRyYW5zcGFyZW5jeTEZMBcGA1UEBRMQMTUxOTIzMTcwNDM5MjM5
NzCCASIwDQYJKoZIhvcNAQEBBQADggEPADCCAQoCggEBAKnKP9TP6hkEuD+d1rPe
A8mxo5xFYffhCcEitP8PtTl7G2RqFrndPeAkzgvOxPB3Jrhx7LtMtg0IvS8y7Sy1
qDqDou1/OrJgwCeWMc1/KSneuGP8GTX0Rqy4z8+LsiBN/tMDbt94RuiyCeltIAaH
GmsNeYXV34ayD3vSIAQbtLUOD39KqrJWO0tQ//nshBuFlebiUrDP7rirPusYYW0s
tJKiCKeORhHvL3/I8mCYGNO0XIWMpASH2S9LGMwg+AQM13whC1KL65EGuVs4Ta0r
O+Tl8Yi0is0RwdUmgdSGtl0evPTzyUXbA1n1BpkLcSQ5E3RxY3O6Ge9Whvtmg9vA
JiMCAwEAAaOBoDCBnTATBgNVHSUEDDAKBggrBgEFBQcDATAjBgNVHREEHDAaghhm
bG93ZXJzLXRvLXRoZS13b3JsZC5jb20wDAYDVR0TAQH/BAIwADAfBgNVHSMEGDAW
gBRKCM/Ajh0Fu6FFjJ9F4gVWK2oj/jAdBgNVHQ4EFgQUVjYl6wDey3DxvmTG2HL4
vdiUt+MwEwYKKwYBBAHWeQIEAwEB/wQCBQAwDQYJKoZIhvcNAQELBQADggEBAAvy
EFDIAWr0URsZzrJLZEL8p6FMTzVxY/MOvGP8QMXA6xNVElxYnDPF32JERAl+poR7
syByhVFcEjrw7f2FTlMc04+hT/hsYzi8cMAmfX9KA36xUBVjyqvqwofxTwoWYdf+
eGZW0EG8Yp1pM7iUy9bdlh3sgdOpmT9Z5XGCRwvdW1+mctv0JMKDdWzxBqYyNMnN
jvjHBmkiuHeDDGFsV2zq+wV64RwJa2eVrnkMDMV1mscL6KzNRLPP2ZpNz/8H7SPo
ck+fk4cZrdqj+0IzFt+6ixSoKyltyD+nkbWjRGY4iyboo/nPgTQ1IQCS2OPVHWw3
NijFD8hqgAnYvz0Dn+k=
-----END CERTIFICATE-----
Certificate:
    Data:
        Version: 3 (0x2)
        Serial Number: 1519231704173487 (0x565bbb20f0baf)
        Signature Algorithm: sha1WithRSAEncryption
        Issuer: C=GB, ST=London, O=Google UK Ltd., OU=Certificate Transparency, CN=Merge Delay Intermediate 1
        Validity
            Not Before: Feb 21 16:48:24 2018 GMT
            Not After : Dec  1 20:34:27 2018 GMT
        Subject: C=GB, L=London, O=Google Certificate Transparency (Precert Signing), serialNumber=1519231704173487
        Subject Public Key Info:
            Public Key Algorithm: rsaEncryption
                Public-Key: (2048 bit)
                Modulus:
                    00:8a:5a:57:37:03:8d:e4:27:d2:33:9a:40:8f:5d:
                    cb:06:c1:3c:65:22:fb:65:f6:c3:58:05:69:71:f6:
                    aa:87:6b:58:ba:b5:4e:ab:66:e1:fd:b9:70:1b:df:
                    0b:27:df:d7:ea:63:6d:87:cc:5f:f2:af:1f:69:77:
                    4e:5d:a0:57:d1:ab:a7:6f:be:6e:1e:1c:d1:5f:16:
                    6e:1c:26:ea:f5:92:63:de:f2:f2:ca:a5:22:3f:3f:
                    60:cf:c7:8f:e6:47:3a:c7:9c:f0:08:f0:9a:3d:42:
                    02:9c:8f:dd:40:c9:87:81:eb:cf:59:17:31:f7:d1:
                    ac:b7:d9:b7:a8:e8:fc:50:be:da:09:93:39:7e:77:
                    37:fd:1e:cd:5e:cd:ab:d2:ee:70:c2:ba:a0:e7:bb:
                    55:75:3a:0e:c9:e7:14:c7:65:e3:72:4c:a8:03:e4:
                    ac:76:f2:e9:26:22:9d:b0:18:eb:e0:de:89:ae:22:
                    70:01:83:f7:b0:d1:5c:67:1b:fb:71:29:5f:ba:f7:
                    37:d5:f5:d8:5c:95:4d:e6:d7:a2:fc:d5:ed:d1:90:
                    9f:0a:83:84:4b:6f:49:a1:f5:7d:c4:32:7f:74:4a:
                    92:7d:cb:0d:23:f0:51:74:12:c9:3a:c3:1b:98:79:
                    41:8b:4a:15:23:8b:c0:4f:9e:76:da:72:d6:3d:07:
                    a3:91
                Exponent: 65537 (0x10001)
        X509v3 extensions:
            X509v3 Extended Key Usage: critical
                CT Precertificate Signer
            X509v3 Basic Constraints: critical
                CA:TRUE
            X509v3 Authority Key Identifier: 
                E9:3C:04:E1:80:2F:C2:84:13:2D:26:70:9E:F2:FD:1A:CF:AA:FE:C6
            X509v3 Subject Key Identifier: 
                4A:08:CF:C0:8E:1D:05:BB:A1:45:8C:9F:45:E2:05:56:2B:6A:23:FE
    Signature Algorithm: sha1WithRSAEncryption
    Signature Value:
        47:a9:da:e5:80:16:c7:6a:d6:72:ed:2d:62:c6:87:b0:df:54:
        f7:3f:2b:ed:65:72:a3:71:eb:8b:9c:8e:95:59:6c:39:cc:9d:
        82:85:6a:07:f6:67:da:c7:11:6a:91:ee:4c:2e:2d:a7:39:c5:
        6f:30:a1:29:4b:6b:f3:47:98:99:9d:83:5f:07:19:48:65:4b:
        ec:7c:88:c3:ef:ed:d2:ba:85:f3:6c:44:57:63:2d:99:19:38:
        59:de:b9:ff:63:d5:bd:1d:57:ea:d7:a1:1b:f2:63:e3:aa:fa:
        5a:26:0b:df:1b:12:bf:a0:f7:3a:be:33:bc:09:e3:04:bf:29:
        e6:8d:1e:93:f0:d6:90:5e:4e:d0:9d:c3:ed:5c:e1:98:11:4c:
        e1:1a:d8:e5:14:a6:4a:6e:78:9f:bd:a6:c0:ff:85:ba:7a:1c:
        b1:7e:59:88:a3:59:0d:3f:89:84:b1:27:84:db:8d:30:be:a2:
        62:91:b0:68:6f:c5:22:db:3f:c7:12:32:dd:d7:d6:92:60:ac:
        52:b5:06:f1:f8:96:aa:84:5c:60:cd:12:25:4d:a0:f0:87:ad:
        a1:1a:f0:9b:4c:64:8a:38:ef:f0:1f:d7:79:43:7e:9e:ac:05:
        d6:74:96:f2:c0:54:37:6e:5a:08:3f:d9:19:16:09:b1:de:7c:
        07:bc:d6:1f:9c:61:d0:d2:ef:be:53:17:64:c2:31:3c:2c:47:
        a1:ac:33:db:15:09:b7:cf:bc:75:c8:fe:95:33:6a:64:67:d2:
        2d:02:ae:1c:9c:70:10:5d:3e:b5:21:8f:e7:17:b9:cf:64:a9:
        29:0b:7a:0b:a7:f4:3f:04:04:33:0c:f6:f6:b9:c1:bd:47:33:
        4a:ee:4a:7a:3e:62:e2:ed:7e:10:9d:05:11:eb:fd:11:b6:04:
        a2:62:ee:e5:03:8c:9f:20:a0:7a:2f:fc:45:09:98:78:c0:20:
        04:4a:cf:be:08:3d:64:64:c4:ca:e7:3a:f1:a1:9c:d6:b6:1f:
        3f:9d:6b:78:69:ba:cc:f4:32:3e:2b:b2:ab:f5:10:a4:c2:db:
        06:c2:b3:a4:64:d8:c4:4f:4b:17:51:6f:2c:1d:58:b4:a6:1a:
        7d:b8:f5:23:1f:5c:ae:00:9f:e7:6a:a1:19:35:7f:02:aa:75:
        77:38:b3:0a:14:bf:19:c6:52:2e:5a:8c:16:91:b5:ce:ba:df:
        5c:c1:4e:6b:e6:48:54:27:bc:69:92:e3:66:85:ee:ad:8f:8d:
        fb:d6:3c:8b:8e:f9:df:ff:9b:c2:a0:37:aa:36:63:28:eb:74:
        f0:c3:b2:52:36:45:95:04:e6:78:0e:47:e2:72:9e:f8:63:62:
        ba:c1:ec:16:ad:d4:46:3b
-----BEGIN CERTIFICATE-----
MIIE4jCCAsqgAwIBAgIHBWW7sg8LrzANBgkqhkiG9w0BAQUFADB/MQswCQYDVQQG
EwJHQjEPMA0GA1UECAwGTG9uZG9uMRcwFQYDVQQKDA5Hb29nbGUgVUsgTHRkLjEh
MB8GA1UECwwYQ2VydGlmaWNhdGUgVHJhbnNwYXJlbmN5MSMwIQYDVQQDDBpNZXJn
ZSBEZWxheSBJbnRlcm1lZGlhdGUgMTAeFw0xODAyMjExNjQ4MjRaFw0xODEyMDEy
MDM0MjdaMHUxCzAJBgNVBAYTAkdCMQ8wDQYDVQQHDAZMb25kb24xOjA4BgNVBAoM
MUdvb2dsZSBDZXJ0aWZpY2F0ZSBUcmFuc3BhcmVuY3kgKFByZWNlcnQgU2lnbmlu
ZykxGTAXBgNVBAUTEDE1MTkyMzE3MDQxNzM0ODcwggEiMA0GCSqGSIb3DQEBAQUA
A4IBDwAwggEKAoIBAQCKWlc3A43kJ9IzmkCPXcsGwTxlIvtl9sNYBWlx9qqHa1i6
tU6rZuH9uXAb3wsn39fqY22HzF/yrx9pd05doFfRq6dvvm4eHNFfFm4cJur1kmPe
8vLKpSI/P2DPx4/mRzrHnPAI8Jo9QgKcj91AyYeB689ZFzH30ay32beo6PxQvtoJ
kzl+dzf9Hs1ezavS7nDCuqDnu1V1Og7J5xTHZeNyTKgD5Kx28ukmIp2wGOvg3omu
InABg/ew0VxnG/txKV+69zfV9dhclU3m16L81e3RkJ8Kg4RLb0mh9X3EMn90SpJ9
yw0j8FF0Esk6wxuYeUGLShUji8BPnnbactY9B6ORAgMBAAGjbTBrMBgGA1UdJQEB
/wQOMAwGCisGAQQB1nkCBAQwDwYDVR0TAQH/BAUwAwEB/zAfBgNVHSMEGDAWgBTp
PAThgC/ChBMtJnCe8v0az6r+xjAdBgNVHQ4EFgQUSgjPwI4dBbuhRYyfReIFVitq
I/4wDQYJKoZIhvcNAQEFBQADggIBAEep2uWAFsdq1nLtLWLGh7DfVPc/K+1lcqNx
64ucjpVZbDnMnYKFagf2Z9rHEWqR7kwuLac5xW8woSlLa/NHmJmdg18HGUhlS+x8
iMPv7dK6hfNsRFdjLZkZOFneuf9j1b0dV+rXoRvyY+Oq+lomC98bEr+g9zq+M7wJ
4wS/KeaNHpPw1pBeTtCdw+1c4ZgRTOEa2OUUpkpueJ+9psD/hbp6HLF+WYijWQ0/
iYSxJ4TbjTC+omKRsGhvxSLbP8cSMt3X1pJgrFK1BvH4lqqEXGDNEiVNoPCHraEa
8JtMZIo47/Af13lDfp6sBdZ0lvLAVDduWgg/2RkWCbHefAe81h+cYdDS775TF2TC
MTwsR6GsM9sVCbfPvHXI/pUzamRn0i0CrhyccBBdPrUhj+cXuc9kqSkLegun9D8E
BDMM9va5wb1HM0ruSno+YuLtfhCdBRHr/RG2BKJi7uUDjJ8goHov/EUJmHjAIARK
z74IPWRkxMrnOvGhnNa2Hz+da3hpusz0Mj4rsqv1EKTC2wbCs6Rk2MRPSxdRbywd
WLSmGn249SMfXK4An+dqoRk1fwKqdXc4swoUvxnGUi5ajBaRtc6631zBTmvmSFQn
vGmS42aF7q2PjfvWPIuO+d//m8KgN6o2YyjrdPDDslI2RZUE5ngOR+JynvhjYrrB
7Bat1EY7
-----END CERTIFICATE-----
Certificate:
    Data:
        Version: 3 (0x2)
        Serial Number: 4097 (0x1001)
        Signature Algorithm: sha1WithRSAEncryption
        Issuer: C=GB, ST=London, O=Google UK Ltd., OU=Certificate Transparency, CN=Merge Delay Monitor Root
        Validity
            Not Before: Jul 17 12:26:30 2014 GMT
            Not After : Jul 16 12:26:30 2019 GMT
        Subject: C=GB, ST=London, O=Google UK Ltd., OU=Certificate Transparency, CN=Merge Delay Intermediate 1
        Subject Public Key Info:
            Public Key Algorithm: rsaEncryption
                Public-Key: (4096 bit)
                Modulus:
                    00:c1:e8:74:fe:ff:9a:ee:f3:03:bb:fa:63:45:38:
                    81:fa:af:8d:c1:c2:2c:09:64:1d:af:43:03:81:f3:
                    3b:c1:57:bf:6c:4c:8a:8d:57:b1:ab:c7:92:85:9d:
                    20:f2:19:15:09:c5:97:c4:37:b1:46:73:de:a5:af:
                    4b:ea:14:39:6d:d4:36:dc:62:05:55:d7:95:3e:0e:
                    de:01:f7:ff:b4:4f:3f:f7:cd:e6:4e:d2:45:63:4e:
                    0d:f0:aa:fc:e9:c3:ac:5e:b6:3d:8d:e1:d9:69:ca:
                    c8:85:41:95:40:3a:9f:9d:1d:4c:3d:ce:ed:f1:35:
                    1e:dd:94:57:43:bc:54:ab:74:5b:20:4f:b5:25:9f:
                    e3:ed:f6:95:c2:cf:90:b8:86:c4:8f:f6:80:b7:44:
                    fe:c2:69:1b:43:45:24:2b:31:c3:6f:31:18:b7:27:
                    c5:de:5c:25:ec:1a:a3:0a:4c:24:61:c5:11:9e:f6:
                    bb:90:d8:16:e6:e4:4c:5b:99:55:bf:a2:ed:34:16:
                    bf:6e:4a:53:c9:2f:af:ac:0d:1f:0b:8b:f3:d3:5b:
                    e0:d4:f6:1c:a0:5d:28:fc:66:2d:fa:58:8f:ba:3e:
                    e0:38:04:70:c0:12:de:d9:e5:1b:bf:1e:7a:25:ef:
                    a7:45:78:4c:49:d0:5e:af:8d:ce:e0:52:73:61:ec:
                    91:31:26:00:5e:97:2c:f4:b8:63:91:4f:83:61:58:
                    2e:d2:45:63:ff:9e:03:c5:2e:8a:9c:a3:26:4c:56:
                    c1:86:b4:ec:52:b7:e6:95:ce:42:ae:17:ec:7a:e0:
                    25:71:31:e1:db:f4:8f:2d:de:24:2e:6e:91:ea:30:
                    49:88:13:5a:15:48:2b:05:fc:09:13:55:32:8b:39:
                    e5:86:e8:dd:3a:4a:3a:14:cb:97:ee:f6:8f:9f:69:
                    72:8c:29:1f:21:95:d2:cc:e7:3d:4a:e9:08:45:b1:
                    bf:c5:fa:e0:40:b9:4f:c3:59:a2:95:11:98:1b:99:
                    66:ae:b5:6d:3a:7c:5e:48:f8:ec:a8:15:e5:be:86:
                    b3:d3:6e:6a:27:e0:e2:c4:de:e6:e3:0f:12:a7:c9:
                    36:b8:c9:8c:ad:59:28:ac:a2:38:df:c3:9c:f9:f2:
                    c5:24:6c:bb:bb:28:0c:b6:f9:9e:b4:9b:fd:1d:78:
                    08:95:39:07:2c:16:4c:70:83:37:17:46:de:db:c4:
                    de:c1:cb:94:39:07:3a:f3:f2:e6:0f:8c:50:5f:06:
                    79:61:a8:c5:39:45:4f:c5:34:11:58:ec:cc:78:53:
                    2f:3e:39:c3:18:7c:94:39:fc:0f:f8:8e:e9:57:13:
                    1d:47:8d:f0:63:dd:50:b2:ad:3f:e7:a0:70:e9:05:
                    e3:86:8b
                Exponent: 65537 (0x10001)
        X509v3 extensions:
            X509v3 Subject Key Identifier: 
                E9:3C:04:E1:80:2F:C2:84:13:2D:26:70:9E:F2:FD:1A:CF:AA:FE:C6
            X509v3 Authority Key Identifier: 
                F3:5F:7B:75:49:E3:78:41:39:6A:20:B6:7C:6B:4C:5C:C9:3D:58:41
            X509v3 Basic Constraints: 
                CA:TRUE
    Signature Algorithm: sha1WithRSAEncryption
    Signature Value:
        08:58:cb:d5:45:f2:e9:2e:09:90:6a:c3:9f:3d:55:c1:36:07:
        a6:51:43:63:86:c6:e9:0f:12:87:73:a0:eb:3f:47:25:d8:af:
        35:fb:7f:88:04:36:b4:81:f2:cf:47:80:18:25:de:54:f1:3f:
        8f:59:20:bf:3d:91:6e:75:31:41:de:5e:59:d2:de:bb:fc:3f:
        c2:26:72:1f:15:a1:6d:3b:7a:46:18:ea:05:51:63:9f:1d:2c:
        b7:b9:fa:ad:1b:7e:07:0f:23:a6:e8:19:7c:3d:75:49:bb:a6:
        55:3f:d5:db:41:9c:e3:99:47:7f:6a:04:81:b9:0f:51:c9:d3:
        07:d8:2c:b0:5c:f9:67:82:8a:1a:ce:65:20:7c:f8:6b:6d:16:
        79:22:45:dc:f2:4b:4c:17:9f:91:18:47:36:e7:e2:fc:b8:63:
        a4:b5:c8:9b:0a:c2:f3:68:39:0a:10:59:4b:95:c8:56:e2:59:
        c7:75:64:31:68:98:cf:87:a6:81:7d:18:58:5f:c9:76:d6:81:
        d9:d5:10:ef:2a:d3:7e:8a:d0:e4:9f:5b:d4:99:c9:ec:7f:e8:
        f4:3b:17:df:fb:9b:7d:0d:fd:83:00:c1:c5:38:9c:9e:a0:be:
        43:70:dc:bf:78:bd:3e:fc:23:08:d2:50:b8:66:bb:ca:03:1c:
        0c:49:ff:77:a7:a5:42:0d:aa:1f:1b:6a:44:4d:36:66:53:97:
        4c:2d:17:9c:30:09:87:1e:e6:c8:91:40:fc:a9:ef:df:23:bd:
        4b:88:c6:eb:ae:b9:28:6f:58:f3:cf:c2:1e:48:74:f1:82:d1:
        ec:d6:05:89:19:b0:3b:18:db:7b:79:5b:e9:cb:25:fc:51:66:
        a9:45:ef:8e:11:33:cd:60:31:2a:32:34:f4:64:9d:f6:16:64:
        07:cb:b5:ec:c8:38:e9:e1:18:c0:5d:ee:7c:89:6a:99:87:65:
        5a:e7:e3:49:cd:81:66:e6:8d:34:de:a3:b4:ae:89:2a:9f:23:
        85:05:32:71:e8:60:b5:42:be:36:50:50:39:74:f3:bb:6f:26:
        88:37:5a:b2:84:87:da:67:51:d0:f2:c3:a3:5e:78:ef:e3:0b:
        19:d5:78:08:eb:ea:2c:44:53:99:0a:d8:1e:b9:62:89:c0:f9:
        9c:50:80:f8:20:92:bc:61:23:a3:40:c6:3a:61:7f:3b:c4:ad:
        c1:29:8d:88:a2:78:a6:93:ef:93:68:86:11:d3:b4:ed:ed:0b:
        6d:02:3e:d9:f6:c2:ea:88:36:48:31:97:52:5b:1b:1b:ce:70:
        a9:0c:34:03:b0:94:d5:f4:12:aa:11:41:b9:96:5a:b8:31:4c:
        52:f7:72:de:ff:c1:00:8c
-----BEGIN CERTIFICATE-----
MIIFyDCCA7CgAwIBAgICEAEwDQYJKoZIhvcNAQEFBQAwfTELMAkGA1UEBhMCR0Ix
DzANBgNVBAgMBkxvbmRvbjEXMBUGA1UECgwOR29vZ2xlIFVLIEx0ZC4xITAfBgNV
BAsMGENlcnRpZmljYXRlIFRyYW5zcGFyZW5jeTEhMB8GA1UEAwwYTWVyZ2UgRGVs
YXkgTW9uaXRvciBSb290MB4XDTE0MDcxNzEyMjYzMFoXDTE5MDcxNjEyMjYzMFow
fzELMAkGA1UEBhMCR0IxDzANBgNVBAgMBkxvbmRvbjEXMBUGA1UECgwOR29vZ2xl
IFVLIEx0ZC4xITAfBgNVBAsMGENlcnRpZmljYXRlIFRyYW5zcGFyZW5jeTEjMCEG
A1UEAwwaTWVyZ2UgRGVsYXkgSW50ZXJtZWRpYXRlIDEwggIiMA0GCSqGSIb3DQEB
AQUAA4ICDwAwggIKAoICAQDB6HT+/5ru8wO7+mNFOIH6r43BwiwJZB2vQwOB8zvB
V79sTIqNV7Grx5KFnSDyGRUJxZfEN7FGc96lr0vqFDlt1DbcYgVV15U+Dt4B9/+0
Tz/3zeZO0kVjTg3wqvzpw6xetj2N4dlpysiFQZVAOp+dHUw9zu3xNR7dlFdDvFSr
dFsgT7Uln+Pt9pXCz5C4hsSP9oC3RP7CaRtDRSQrMcNvMRi3J8XeXCXsGqMKTCRh
xRGe9ruQ2Bbm5ExbmVW/ou00Fr9uSlPJL6+sDR8Li/PTW+DU9hygXSj8Zi36WI+6
PuA4BHDAEt7Z5Ru/Hnol76dFeExJ0F6vjc7gUnNh7JExJgBelyz0uGORT4NhWC7S
RWP/ngPFLoqcoyZMVsGGtOxSt+aVzkKuF+x64CVxMeHb9I8t3iQubpHqMEmIE1oV
SCsF/AkTVTKLOeWG6N06SjoUy5fu9o+faXKMKR8hldLM5z1K6QhFsb/F+uBAuU/D
WaKVEZgbmWautW06fF5I+OyoFeW+hrPTbmon4OLE3ubjDxKnyTa4yYytWSisojjf
w5z58sUkbLu7KAy2+Z60m/0deAiVOQcsFkxwgzcXRt7bxN7By5Q5Bzrz8uYPjFBf
BnlhqMU5RU/FNBFY7Mx4Uy8+OcMYfJQ5/A/4julXEx1HjfBj3VCyrT/noHDpBeOG
iwIDAQABo1AwTjAdBgNVHQ4EFgQU6TwE4YAvwoQTLSZwnvL9Gs+q/sYwHwYDVR0j
BBgwFoAU8197dUnjeEE5aiC2fGtMXMk9WEEwDAYDVR0TBAUwAwEB/zANBgkqhkiG
9w0BAQUFAAOCAgEACFjL1UXy6S4JkGrDnz1VwTYHplFDY4bG6Q8Sh3Og6z9HJdiv
Nft/iAQ2tIHyz0eAGCXeVPE/j1kgvz2RbnUxQd5eWdLeu/w/wiZyHxWhbTt6Rhjq
BVFjnx0st7n6rRt+Bw8jpugZfD11SbumVT/V20Gc45lHf2oEgbkPUcnTB9gssFz5
Z4KKGs5lIHz4a20WeSJF3PJLTBefkRhHNufi/LhjpLXImwrC82g5ChBZS5XIVuJZ
x3VkMWiYz4emgX0YWF/JdtaB2dUQ7yrTforQ5J9b1JnJ7H/o9DsX3/ubfQ39gwDB
xTicnqC+Q3Dcv3i9PvwjCNJQuGa7ygMcDEn/d6elQg2qHxtqRE02ZlOXTC0XnDAJ
hx7myJFA/Knv3yO9S4jG6665KG9Y88/CHkh08YLR7NYFiRmwOxjbe3lb6csl/FFm
qUXvjhEzzWAxKjI09GSd9hZkB8u17Mg46eEYwF3ufIlqmYdlWufjSc2BZuaNNN6j
tK6JKp8jhQUycehgtUK+NlBQOXTzu28miDdasoSH2mdR0PLDo1547+MLGdV4COvq
LERTmQrYHrliicD5nFCA+CCSvGEjo0DGOmF/O8StwSmNiKJ4ppPvk2iGEdO07e0L
bQI+2fbC6og2SDGXUlsbG85wqQw0A7CU1fQSqhFBuZZauDFMUvdy3v/BAIw=
-----END CERTIFICATE-----
Certificate:
    Data:
        Version: 3 (0x2)
        Serial Number:
            9e:d3:cc:b1:d1:2c:a2:72
        Signature Algorithm: sha1WithRSAEncryption
        Issuer: C=GB, ST=London, O=Google UK Ltd., OU=Certificate Transparency, CN=Merge Delay Monitor Root
        Validity
            Not Before: Jul 17 12:05:43 2014 GMT
            Not After : Dec  2 12:05:43 2041 GMT
        Subject: C=GB, ST=London, O=Google UK Ltd., OU=Certificate Transparency, CN=Merge Delay Monitor Root
        Subject Public Key Info:
            Public Key Algorithm: rsaEncryption
                Public-Key: (4096 bit)
                Modulus:
                    00:aa:16:1c:f2:20:5e:d8:1a:c5:65:48:3c:da:42:
                    6a:3d:b2:e5:88:fd:b7:58:b1:7b:93:ea:8d:68:49:
                    5d:53:4a:01:ba:4f:6c:d1:c0:fc:0a:12:8a:f7:9c:
                    06:6d:c5:4c:3f:43:7e:05:ba:27:5e:e6:1d:bf:9c:
                    bd:b2:92:81:83:73:81:39:39:7b:61:89:ae:73:8f:
                    ef:2b:9b:60:9a:6d:d8:e0:b0:d0:e2:0b:24:3d:b9:
                    36:c0:29:cd:c2:22:0a:f2:c0:e1:a5:e4:aa:41:a0:
                    06:af:45:89:57:e2:b1:17:8d:27:15:6e:f0:cb:71:
                    7e:16:d5:40:25:d9:7f:43:e9:91:6f:b2:40:fb:85:
                    f7:d5:79:46:2f:a0:ac:76:c7:62:56:84:37:50:bf:
                    1c:cd:fe:b7:6c:8c:47:88:64:77:64:4d:5e:c3:23:
                    56:28:ad:f6:a0:9c:84:88:bf:a5:03:6d:e7:17:90:
                    81:51:a6:b5:85:f2:73:dd:9f:b5:33:2b:9a:f7:6e:
                    8f:bf:a9:1e:af:43:11:81:6d:de:27:c5:c4:4f:2f:
                    d0:6c:c2:20:4d:71:47:f7:7b:a6:b1:6a:2a:5f:ca:
                    47:00:23:61:47:29:53:8b:ee:6b:3c:b0:72:64:71:
                    38:32:ae:c1:61:55:0e:b5:01:90:68:02:21:52:23:
                    ac:c2:56:4a:d1:f9:8b:b5:93:49:24:eb:56:d3:83:
                    fc:75:98:be:45:c8:9d:99:52:81:c0:ef:b0:d2:06:
                    d2:9a:6d:25:a1:0a:48:fe:23:53:32:37:9c:5c:a6:
                    9e:83:59:9f:aa:67:7d:d2:08:23:f5:c8:4a:96:12:
                    55:ec:a5:d4:87:1d:54:ca:1d:f0:77:4a:a1:17:b0:
                    f4:2c:d6:e9:fd:a7:e8:a4:8a:53:92:3c:5f:94:04:
                    33:53:54:4e:64:4b:5a:65:62:e5:ce:f9:fc:2b:d2:
                    fc:fc:ce:33:23:33:5c:f7:fe:7c:4d:83:c1:b7:f8:
                    39:c4:79:01:92:d3:ba:9a:a9:f3:20:93:aa:8e:e7:
                    cb:e7:08:05:9d:53:8d:c6:63:cc:a1:b8:25:33:1a:
                    a8:36:75:4a:0d:13:de:63:bf:65:b6:e2:04:4d:cd:
                    f0:41:f1:a0:c5:a9:c3:c3:8f:e7:4c:f5:76:d4:51:
                    c2:3e:aa:51:9d:b3:2e:f9:e0:39:bd:84:8a:19:4c:
                    3b:5e:41:a5:56:42:dc:28:3d:db:d7:3d:1d:d9:7a:
                    e6:95:1d:e1:8a:d8:9d:00:50:07:fa:e7:e8:8b:c7:
                    a3:cc:e8:b7:cc:c4:96:03:a0:db:67:c7:6d:58:a2:
                    8d:4b:77:aa:74:60:80:1e:34:37:7d:0c:5e:46:06:
                    c2:e2:5b
                Exponent: 65537 (0x10001)
        X509v3 extensions:
            X509v3 Subject Key Identifier: 
                F3:5F:7B:75:49:E3:78:41:39:6A:20:B6:7C:6B:4C:5C:C9:3D:58:41
            X509v3 Authority Key Identifier: 
                F3:5F:7B:75:49:E3:78:41:39:6A:20:B6:7C:6B:4C:5C:C9:3D:58:41
            X509v3 Basic Constraints: 
                CA:TRUE
    Signature Algorithm: sha1WithRSAEncryption
    Signature Value:
        77:1c:fe:a3:45:79:a9:75:20:d8:c2:42:3d:68:ec:d0:78:91:
        f8:c7:f1:c3:8b:f3:cd:30:ea:9d:36:37:bf:c5:d3:73:53:2e:
        c7:65:65:58:be:f4:95:06:46:75:0c:6f:e0:85:c5:2d:9f:fc:
        09:e6:6e:bf:a2:b0:67:de:77:27:cb:38:1d:2b:25:db:58:b9:
        c2:19:7f:d5:eb:53:e0:20:f4:29:b8:6a:3b:1f:37:a0:7a:76:
        1a:66:a5:b3:ec:d7:97:c4:66:95:a3:7f:f2:d4:7c:54:12:6b:
        e6:bd:28:a2:a1:03:35:72:27:c6:b7:3f:7f:68:9b:09:b4:89:
        27:e6:e9:a5:22:67:a7:28:a1:15:d4:bc:bb:47:75:33:dc:28:
        f3:fc:57:da:73:5a:3e:c5:4f:bc:36:99:0b:17:fe:bb:7e:46:
        b3:24:20:8c:1f:a7:42:5a:0c:ba:48:bd:c0:38:1e:a8:28:52:
        15:26:1c:3c:48:3f:2f:a6:d1:da:0d:ba:49:49:10:71:89:f3:
        2d:72:8a:7f:f3:95:d4:34:30:af:3b:8c:e4:be:50:75:bc:f6:
        7d:66:66:19:41:dc:8b:e3:73:40:f8:f9:28:2b:2d:2a:ad:d6:
        90:65:93:2a:d4:97:69:f8:bc:7f:c9:e5:f6:e7:9f:f3:92:42:
        0b:a7:8d:e3:17:27:78:e2:b6:7e:4d:f1:84:40:dd:56:1e:5a:
        78:44:c8:ef:a0:6c:0e:5f:5b:86:95:fa:06:91:14:a0:05:18:
        fb:4c:19:f9:d7:85:58:31:b5:ee:eb:ce:d1:4b:85:98:da:ff:
        a4:9f:2d:cf:50:5b:ff:64:17:d8:4b:28:e8:35:99:d4:e0:37:
        1e:f6:4b:2d:82:ff:a0:68:a3:10:44:f7:32:2f:ee:2f:65:4e:
        c3:57:c9:c1:21:f3:45:8a:50:97:28:c3:7f:56:73:41:2a:d0:
        d5:e7:6a:a6:b4:eb:15:82:18:1a:8b:e4:04:d3:dc:35:e7:1e:
        dd:83:ee:38:80:87:d6:14:7c:4d:86:f1:ca:ca:cf:ac:e0:10:
        4d:f1:f4:b1:00:c2:ce:b1:be:4d:18:51:c4:f3:1e:7c:44:09:
        26:21:85:87:8f:23:cc:eb:30:79:01:43:f0:d5:bd:80:d2:c0:
        ed:42:60:aa:a3:12:59:7d:95:0a:af:3c:8b:cf:c8:12:d9:a5:
        6e:8d:16:0d:d7:72:a4:94:74:37:10:a7:e4:78:a0:46:d8:a5:
        d5:05:ee:6b:8c:c3:7f:ec:09:df:d4:cb:57:c6:c4:d8:e8:ef:
        2a:22:e1:d9:e5:09:57:85:26:33:13:8d:72:22:53:e5:1b:a7:
        7b:00:69:d3:88:12:20:7a
-----BEGIN CERTIFICATE-----
MIIFzTCCA7WgAwIBAgIJAJ7TzLHRLKJyMA0GCSqGSIb3DQEBBQUAMH0xCzAJBgNV
BAYTAkdCMQ8wDQYDVQQIDAZMb25kb24xFzAVBgNVBAoMDkdvb2dsZSBVSyBMdGQu
MSEwHwYDVQQLDBhDZXJ0aWZpY2F0ZSBUcmFuc3BhcmVuY3kxITAfBgNVBAMMGE1l
cmdlIERlbGF5IE1vbml0b3IgUm9vdDAeFw0xNDA3MTcxMjA1NDNaFw00MTEyMDIx
MjA1NDNaMH0xCzAJBgNVBAYTAkdCMQ8wDQYDVQQIDAZMb25kb24xFzAVBgNVBAoM
Dkdvb2dsZSBVSyBMdGQuMSEwHwYDVQQLDBhDZXJ0aWZpY2F0ZSBUcmFuc3BhcmVu
Y3kxITAfBgNVBAMMGE1lcmdlIERlbGF5IE1vbml0b3IgUm9vdDCCAiIwDQYJKoZI
hvcNAQEBBQADggIPADCCAgoCggIBAKoWHPIgXtgaxWVIPNpCaj2y5Yj9t1ixe5Pq
jWhJXVNKAbpPbNHA/AoSivecBm3FTD9DfgW6J17mHb+cvbKSgYNzgTk5e2GJrnOP
7yubYJpt2OCw0OILJD25NsApzcIiCvLA4aXkqkGgBq9FiVfisReNJxVu8MtxfhbV
QCXZf0PpkW+yQPuF99V5Ri+grHbHYlaEN1C/HM3+t2yMR4hkd2RNXsMjViit9qCc
hIi/pQNt5xeQgVGmtYXyc92ftTMrmvduj7+pHq9DEYFt3ifFxE8v0GzCIE1xR/d7
prFqKl/KRwAjYUcpU4vuazywcmRxODKuwWFVDrUBkGgCIVIjrMJWStH5i7WTSSTr
VtOD/HWYvkXInZlSgcDvsNIG0pptJaEKSP4jUzI3nFymnoNZn6pnfdIII/XISpYS
Veyl1IcdVMod8HdKoRew9CzW6f2n6KSKU5I8X5QEM1NUTmRLWmVi5c75/CvS/PzO
MyMzXPf+fE2Dwbf4OcR5AZLTupqp8yCTqo7ny+cIBZ1TjcZjzKG4JTMaqDZ1Sg0T
3mO/ZbbiBE3N8EHxoMWpw8OP50z1dtRRwj6qUZ2zLvngOb2EihlMO15BpVZC3Cg9
29c9Hdl65pUd4YrYnQBQB/rn6IvHo8zot8zElgOg22fHbViijUt3qnRggB40N30M
XkYGwuJbAgMBAAGjUDBOMB0GA1UdDgQWBBTzX3t1SeN4QTlqILZ8a0xcyT1YQTAf
BgNVHSMEGDAWgBTzX3t1SeN4QTlqILZ8a0xcyT1YQTAMBgNVHRMEBTADAQH/MA0G
CSqGSIb3DQEBBQUAA4ICAQB3HP6jRXmpdSDYwkI9aOzQeJH4x/HDi/PNMOqdNje/
xdNzUy7HZWVYvvSVBkZ1DG/ghcUtn/wJ5m6/orBn3ncnyzgdKyXbWLnCGX/V61Pg
IPQpuGo7HzegenYaZqWz7NeXxGaVo3/y1HxUEmvmvSiioQM1cifGtz9/aJsJtIkn
5umlImenKKEV1Ly7R3Uz3Cjz/Ffac1o+xU+8NpkLF/67fkazJCCMH6dCWgy6SL3A
OB6oKFIVJhw8SD8vptHaDbpJSRBxifMtcop/85XUNDCvO4zkvlB1vPZ9ZmYZQdyL
43NA+PkoKy0qrdaQZZMq1Jdp+Lx/yeX255/zkkILp43jFyd44rZ+TfGEQN1WHlp4
RMjvoGwOX1uGlfoGkRSgBRj7TBn514VYMbXu687RS4WY2v+kny3PUFv/ZBfYSyjo
NZnU4Dce9kstgv+gaKMQRPcyL+4vZU7DV8nBIfNFilCXKMN/VnNBKtDV52qmtOsV
ghgai+QE09w15x7dg+44gIfWFHxNhvHKys+s4BBN8fSxAMLOsb5NGFHE8x58RAkm
IYWHjyPM6zB5AUPw1b2A0sDtQmCqoxJZfZUKrzyLz8gS2aVujRYN13KklHQ3EKfk
eKBG2KXVBe5rjMN/7Anf1MtXxsTY6O8qIuHZ5QlXhSYzE41yIlPlG6d7AGnTiBIg
eg==
-----END CERTIFICATE-----
