Certificate:
    Data:
        Version: 3 (0x2)
        Serial Number:
            9c:a4:07:e2:25:f9:7c:c2:0a:00:00:00:00:20:6e:e5
        Signature Algorithm: sha256WithRSAEncryption
        Issuer: C=US, O=Google Trust Services, CN=GTS CA 1D2
        Validity
            Not Before: Mar 23 12:23:44 2020 GMT
            Not After : Jun 21 12:23:44 2020 GMT
        Subject: CN=certificate.transparency.dev
        Subject Public Key Info:
            Public Key Algorithm: rsaEncryption
                Public-Key: (2048 bit)
                Modulus:
                    00:a8:7e:59:c0:e5:3b:da:3c:bf:04:51:91:eb:9f:
                    6c:1b:cf:9f:90:dc:22:89:1c:b5:98:24:69:2e:26:
                    2d:61:92:04:0f:2e:f1:da:ec:ea:3a:d9:cc:3a:82:
                    e2:b8:3a:7d:6c:79:79:f7:36:c5:52:a4:bb:46:1d:
                    2f:0b:6c:5f:00:31:af:24:e9:4a:1b:32:63:1a:b5:
                    c3:28:9c:a7:0a:b5:73:e2:c1:a7:b5:1e:11:ae:cd:
                    19:79:0c:62:06:cf:80:f0:ed:e2:72:82:bb:b4:84:
                    0e:9d:c9:7d:3b:fb:4e:05:49:3a:14:0f:86:92:01:
                    49:52:2c:cc:a0:e1:ef:86:fe:18:00:83:69:6c:90:
                    c6:7b:a9:42:df:57:9c:7b:61:06:80:23:b2:5f:95:
                    95:1e:9b:34:6f:ab:a3:21:1b:2b:8e:9f:34:4f:ec:
                    e8:9a:48:74:81:2f:9b:12:67:54:a1:46:76:96:9a:
                    1e:9d:c3:ee:bf:6a:e8:49:72:57:28:b1:12:c4:ca:
                    41:84:96:f7:32:4a:4a:9e:59:2d:48:3e:ac:29:0c:
                    f4:f4:03:28:33:1a:73:10:48:29:68:12:e3:f9:7e:
                    f4:5f:01:54:b0:73:c6:a8:72:b6:84:54:05:23:36:
                    b6:db:3f:d8:e5:27:89:4c:dc:bb:b1:c9:9e:e7:7e:
                    b0:b5
                Exponent: 65537 (0x10001)
        X509v3 extensions:
            X509v3 Key Usage: critical
                Digital Signature, Key Encipherment
            X509v3 Extended Key Usage: 
                TLS Web Server Authentication
            X509v3 Basic Constraints: critical
                CA:FALSE
            X509v3 Subject Key Identifier: 
                B8:E0:AF:4F:7C:48:F3:FF:EB:FC:5E:A5:34:36:2D:56:54:AC:97:6B
            X509v3 Authority Key Identifier: 
                B1:DD:32:5D:E8:B7:37:72:D2:CE:5C:CE:26:FE:47:79:E2:01:08:E9
            Authority Information Access: 
                OCSP - URI:http://ocsp.pki.goog/gts1d2
                CA Issuers - URI:http://pki.goog/gsr2/GTS1D2.crt
            X509v3 Subject Alternative Name: 
                DNS:certificate.transparency.dev
            X509v3 Certificate Policies: 
                Policy: 2.23.140.1.2.1
                Policy: 1.3.6.1.4.1.11129.2.5.3
            X509v3 CRL Distribution Points: 
                Full Name:
                  URI:http://crl.pki.goog/GTS1D2.crl
            CT Precertificate Poison: critical
                NULL
    Signature Algorithm: sha256WithRSAEncryption
    Signature Value:
        51:fe:93:53:7a:e1:6d:34:ce:a2:1d:4d:32:c5:39:a5:e8:1e:
        ee:97:56:33:84:5a:5e:5c:be:13:64:92:66:df:a7:79:82:c8:
        35:c6:4d:8f:ff:da:a1:cc:4d:70:b0:a7:1c:73:69:d5:08:ea:
        53:f4:8e:73:27:5a:9d:5a:c7:39:0a:19:dd:51:21:94:3c:31:
        b5:cd:06:2d:50:bf:90:09:3e:62:ca:a3:bf:f2:74:9d:2b:33:
        38:e9:9f:f1:b7:2f:e2:3c:e4:8a:d4:63:57:c7:bd:27:fd:94:
        15:c5:03:82:95:35:79:d6:84:0f:90:01:47:53:af:ed:12:d6:
        9c:63:04:1b:06:83:87:83:a1:34:f0:05:d8:8b:c6:b9:39:ce:
        9c:32:ac:bf:04:d5:8d:b8:2f:ee:61:55:b9:f3:b9:b8:93:c7:
        6d:9c:39:68:b4:39:d8:67:5d:cb:5b:bd:d5:a1:b8:d9:18:16:
        7c:f3:ff:7a:77:d9:cc:68:f3:c8:ee:b4:52:06:37:6c:8e:23:
        69:1c:49:81:1c:08:26:80:a1:05:8b:ed:f5:dc:33:c6:84:7a:
        e3:ef:2f:c3:22:02:a0:33:8d:48:61:8a:98:27:34:e8:75:5d:
        eb:56:93:a3:be:2e:c5:04:ab:d6:88:cc:53:c6:9c:db:9f:aa:
        5d:eb:c6:82
-----BEGIN CERTIFICATE-----
MIIEZTCCA02gAwIBAgIRAJykB+Il+XzCCgAAAAAgbuUwDQYJKoZIhvcNAQELBQAw
QjELMAkGA1UEBhMCVVMxHjAcBgNVBAoTFUdvb2dsZSBUcnVzdCBTZXJ2aWNlczET
MBEGA1UEAxMKR1RTIENBIDFEMjAeFw0yMDAzMjMxMjIzNDRaFw0yMDA2MjExMjIz
NDRaMCcxJTAjBgNVBAMTHGNlcnRpZmljYXRlLnRyYW5zcGFyZW5jeS5kZXYwggEi
MA0GCSqGSIb3DQEBAQUAA4IBDwAwggEKAoIBAQCoflnA5TvaPL8EUZHrn2wbz5+Q
3CKJHLWYJGkuJi1hkgQPLvHa7Oo62cw6guK4On1seXn3NsVSpLtGHS8LbF8AMa8k
6UobMmMatcMonKcKtXPiwae1HhGuzRl5DGIGz4Dw7eJygru0hA6dyX07+04FSToU
D4aSAUlSLMyg4e+G/hgAg2lskMZ7qULfV5x7YQaAI7JflZUemzRvq6MhGyuOnzRP
7OiaSHSBL5sSZ1ShRnaWmh6dw+6/auhJclcosRLEykGElvcySkqeWS1IPqwpDPT0
AygzGnMQSCloEuP5fvRfAVSwc8aocraEVAUjNrbbP9jlJ4lM3LuxyZ7nfrC1AgMB
AAGjggFvMIIBazAOBgNVHQ8BAf8EBAMCBaAwEwYDVR0lBAwwCgYIKwYBBQUHAwEw
DAYDVR0TAQH/BAIwADAdBgNVHQ4EFgQUuOCvT3xI8//r/F6lNDYtVlSsl2swHwYD
VR0jBBgwFoAUsd0yXei3N3LSzlzOJv5HeeIBCOkwZAYIKwYBBQUHAQEEWDBWMCcG
CCsGAQUFBzABhhtodHRwOi8vb2NzcC5wa2kuZ29vZy9ndHMxZDIwKwYIKwYBBQUH
MAKGH2h0dHA6Ly9wa2kuZ29vZy9nc3IyL0dUUzFEMi5jcnQwJwYDVR0RBCAwHoIc
Y2VydGlmaWNhdGUudHJhbnNwYXJlbmN5LmRldjAhBgNVHSAEGjAYMAgGBmeBDAEC
ATAMBgorBgEEAdZ5AgUDMC8GA1UdHwQoMCYwJKAioCCGHmh0dHA6Ly9jcmwucGtp
Lmdvb2cvR1RTMUQyLmNybDATBgorBgEEAdZ5AgQDAQH/BAIFADANBgkqhkiG9w0B
AQsFAAOCAQEAUf6TU3rhbTTOoh1NMsU5pege7pdWM4RaXly+E2SSZt+neYLINcZN
j//aocxNcLCnHHNp1QjqU/SOcydanVrHOQoZ3VEhlDwxtc0GLVC/kAk+Ysqjv/J0
nSszOOmf8bcv4jzkitRjV8e9J/2UFcUDgpU1edaED5ABR1Ov7RLWnGMEGwaDh4Oh
NPAF2IvGuTnOnDKsvwTVjbgv7mFVufO5uJPHbZw5aLQ52Gddy1u91aG42RgWfPP/
enfZzGjzyO60UgY3bI4jaRxJgRwIJoChBYvt9dwzxoR64+8vwyICoDONSGGKmCc0
6HVd61aTo74uxQSr1ojMU8ac25+qXevGgg==
-----END CERTIFICATE-----
