Certificate:
    Data:
        Version: 3 (0x2)
        Serial Number:
            9e:d3:cc:b1:d1:2c:a2:72
        Signature Algorithm: sha1WithRSAEncryption
        Issuer: C=GB, ST=London, O=Google UK Ltd., OU=Certificate Transparency, CN=Merge Delay Monitor Root
        Validity
            Not Before: Jul 17 12:05:43 2014 GMT
            Not After : Dec  2 12:05:43 2041 GMT
        Subject: C=GB, ST=London, O=Google UK Ltd., OU=Certificate Transparency, CN=Merge Delay Monitor Root
        Subject Public Key Info:
            Public Key Algorithm: rsaEncryption
                Public-Key: (4096 bit)
                Modulus:
                    00:aa:16:1c:f2:20:5e:d8:1a:c5:65:48:3c:da:42:
                    6a:3d:b2:e5:88:fd:b7:58:b1:7b:93:ea:8d:68:49:
                    5d:53:4a:01:ba:4f:6c:d1:c0:fc:0a:12:8a:f7:9c:
                    06:6d:c5:4c:3f:43:7e:05:ba:27:5e:e6:1d:bf:9c:
                    bd:b2:92:81:83:73:81:39:39:7b:61:89:ae:73:8f:
                    ef:2b:9b:60:9a:6d:d8:e0:b0:d0:e2:0b:24:3d:b9:
                    36:c0:29:cd:c2:22:0a:f2:c0:e1:a5:e4:aa:41:a0:
                    06:af:45:89:57:e2:b1:17:8d:27:15:6e:f0:cb:71:
                    7e:16:d5:40:25:d9:7f:43:e9:91:6f:b2:40:fb:85:
                    f7:d5:79:46:2f:a0:ac:76:c7:62:56:84:37:50:bf:
                    1c:cd:fe:b7:6c:8c:47:88:64:77:64:4d:5e:c3:23:
                    56:28:ad:f6:a0:9c:84:88:bf:a5:03:6d:e7:17:90:
                    81:51:a6:b5:85:f2:73:dd:9f:b5:33:2b:9a:f7:6e:
                    8f:bf:a9:1e:af:43:11:81:6d:de:27:c5:c4:4f:2f:
                    d0:6c:c2:20:4d:71:47:f7:7b:a6:b1:6a:2a:5f:ca:
                    47:00:23:61:47:29:53:8b:ee:6b:3c:b0:72:64:71:
                    38:32:ae:c1:61:55:0e:b5:01:90:68:02:21:52:23:
                    ac:c2:56:4a:d1:f9:8b:b5:93:49:24:eb:56:d3:83:
                    fc:75:98:be:45:c8:9d:99:52:81:c0:ef:b0:d2:06:
                    d2:9a:6d:25:a1:0a:48:fe:23:53:32:37:9c:5c:a6:
                    9e:83:59:9f:aa:67:7d:d2:08:23:f5:c8:4a:96:12:
                    55:ec:a5:d4:87:1d:54:ca:1d:f0:77:4a:a1:17:b0:
                    f4:2c:d6:e9:fd:a7:e8:a4:8a:53:92:3c:5f:94:04:
                    33:53:54:4e:64:4b:5a:65:62:e5:ce:f9:fc:2b:d2:
                    fc:fc:ce:33:23:33:5c:f7:fe:7c:4d:83:c1:b7:f8:
                    39:c4:79:01:92:d3:ba:9a:a9:f3:20:93:aa:8e:e7:
                    cb:e7:08:05:9d:53:8d:c6:63:cc:a1:b8:25:33:1a:
                    a8:36:75:4a:0d:13:de:63:bf:65:b6:e2:04:4d:cd:
                    f0:41:f1:a0:c5:a9:c3:c3:8f:e7:4c:f5:76:d4:51:
                    c2:3e:aa:51:9d:b3:2e:f9:e0:39:bd:84:8a:19:4c:
                    3b:5e:41:a5:56:42:dc:28:3d:db:d7:3d:1d:d9:7a:
                    e6:95:1d:e1:8a:d8:9d:00:50:07:fa:e7:e8:8b:c7:
                    a3:cc:e8:b7:cc:c4:96:03:a0:db:67:c7:6d:58:a2:
                    8d:4b:77:aa:74:60:80:1e:34:37:7d:0c:5e:46:06:
                    c2:e2:5b
                Exponent: 65537 (0x10001)
        X509v3 extensions:
            X509v3 Subject Key Identifier: 
                F3:5F:7B:75:49:E3:78:41:39:6A:20:B6:7C:6B:4C:5C:C9:3D:58:41
            X509v3 Authority Key Identifier: 
                F3:5F:7B:75:49:E3:78:41:39:6A:20:B6:7C:6B:4C:5C:C9:3D:58:41
            X509v3 Basic Constraints: 
                CA:TRUE
    Signature Algorithm: sha1WithRSAEncryption
    Signature Value:
        77:1c:fe:a3:45:79:a9:75:20:d8:c2:42:3d:68:ec:d0:78:91:
        f8:c7:f1:c3:8b:f3:cd:30:ea:9d:36:37:bf:c5:d3:73:53:2e:
        c7:65:65:58:be:f4:95:06:46:75:0c:6f:e0:85:c5:2d:9f:fc:
        09:e6:6e:bf:a2:b0:67:de:77:27:cb:38:1d:2b:25:db:58:b9:
        c2:19:7f:d5:eb:53:e0:20:f4:29:b8:6a:3b:1f:37:a0:7a:76:
        1a:66:a5:b3:ec:d7:97:c4:66:95:a3:7f:f2:d4:7c:54:12:6b:
        e6:bd:28:a2:a1:03:35:72:27:c6:b7:3f:7f:68:9b:09:b4:89:
        27:e6:e9:a5:22:67:a7:28:a1:15:d4:bc:bb:47:75:33:dc:28:
        f3:fc:57:da:73:5a:3e:c5:4f:bc:36:99:0b:17:fe:bb:7e:46:
        b3:24:20:8c:1f:a7:42:5a:0c:ba:48:bd:c0:38:1e:a8:28:52:
        15:26:1c:3c:48:3f:2f:a6:d1:da:0d:ba:49:49:10:71:89:f3:
        2d:72:8a:7f:f3:95:d4:34:30:af:3b:8c:e4:be:50:75:bc:f6:
        7d:66:66:19:41:dc:8b:e3:73:40:f8:f9:28:2b:2d:2a:ad:d6:
        90:65:93:2a:d4:97:69:f8:bc:7f:c9:e5:f6:e7:9f:f3:92:42:
        0b:a7:8d:e3:17:27:78:e2:b6:7e:4d:f1:84:40:dd:56:1e:5a:
        78:44:c8:ef:a0:6c:0e:5f:5b:86:95:fa:06:91:14:a0:05:18:
        fb:4c:19:f9:d7:85:58:31:b5:ee:eb:ce:d1:4b:85:98:da:ff:
        a4:9f:2d:cf:50:5b:ff:64:17:d8:4b:28:e8:35:99:d4:e0:37:
        1e:f6:4b:2d:82:ff:a0:68:a3:10:44:f7:32:2f:ee:2f:65:4e:
        c3:57:c9:c1:21:f3:45:8a:50:97:28:c3:7f:56:73:41:2a:d0:
        d5:e7:6a:a6:b4:eb:15:82:18:1a:8b:e4:04:d3:dc:35:e7:1e:
        dd:83:ee:38:80:87:d6:14:7c:4d:86:f1:ca:ca:cf:ac:e0:10:
        4d:f1:f4:b1:00:c2:ce:b1:be:4d:18:51:c4:f3:1e:7c:44:09:
        26:21:85:87:8f:23:cc:eb:30:79:01:43:f0:d5:bd:80:d2:c0:
        ed:42:60:aa:a3:12:59:7d:95:0a:af:3c:8b:cf:c8:12:d9:a5:
        6e:8d:16:0d:d7:72:a4:94:74:37:10:a7:e4:78:a0:46:d8:a5:
        d5:05:ee:6b:8c:c3:7f:ec:09:df:d4:cb:57:c6:c4:d8:e8:ef:
        2a:22:e1:d9:e5:09:57:85:26:33:13:8d:72:22:53:e5:1b:a7:
        7b:00:69:d3:88:12:20:7a
-----BEGIN CERTIFICATE-----
MIIFzTCCA7WgAwIBAgIJAJ7TzLHRLKJyMA0GCSqGSIb3DQEBBQUAMH0xCzAJBgNV
BAYTAkdCMQ8wDQYDVQQIDAZMb25kb24xFzAVBgNVBAoMDkdvb2dsZSBVSyBMdGQu
MSEwHwYDVQQLDBhDZXJ0aWZpY2F0ZSBUcmFuc3BhcmVuY3kxITAfBgNVBAMMGE1l
cmdlIERlbGF5IE1vbml0b3IgUm9vdDAeFw0xNDA3MTcxMjA1NDNaFw00MTEyMDIx
MjA1NDNaMH0xCzAJBgNVBAYTAkdCMQ8wDQYDVQQIDAZMb25kb24xFzAVBgNVBAoM
Dkdvb2dsZSBVSyBMdGQuMSEwHwYDVQQLDBhDZXJ0aWZpY2F0ZSBUcmFuc3BhcmVu
Y3kxITAfBgNVBAMMGE1lcmdlIERlbGF5IE1vbml0b3IgUm9vdDCCAiIwDQYJKoZI
hvcNAQEBBQADggIPADCCAgoCggIBAKoWHPIgXtgaxWVIPNpCaj2y5Yj9t1ixe5Pq
jWhJXVNKAbpPbNHA/AoSivecBm3FTD9DfgW6J17mHb+cvbKSgYNzgTk5e2GJrnOP
7yubYJpt2OCw0OILJD25NsApzcIiCvLA4aXkqkGgBq9FiVfisReNJxVu8MtxfhbV
QCXZf0PpkW+yQPuF99V5Ri+grHbHYlaEN1C/HM3+t2yMR4hkd2RNXsMjViit9qCc
hIi/pQNt5xeQgVGmtYXyc92ftTMrmvduj7+pHq9DEYFt3ifFxE8v0GzCIE1xR/d7
prFqKl/KRwAjYUcpU4vuazywcmRxODKuwWFVDrUBkGgCIVIjrMJWStH5i7WTSSTr
VtOD/HWYvkXInZlSgcDvsNIG0pptJaEKSP4jUzI3nFymnoNZn6pnfdIII/XISpYS
Veyl1IcdVMod8HdKoRew9CzW6f2n6KSKU5I8X5QEM1NUTmRLWmVi5c75/CvS/PzO
MyMzXPf+fE2Dwbf4OcR5AZLTupqp8yCTqo7ny+cIBZ1TjcZjzKG4JTMaqDZ1Sg0T
3mO/ZbbiBE3N8EHxoMWpw8OP50z1dtRRwj6qUZ2zLvngOb2EihlMO15BpVZC3Cg9
29c9Hdl65pUd4YrYnQBQB/rn6IvHo8zot8zElgOg22fHbViijUt3qnRggB40N30M
XkYGwuJbAgMBAAGjUDBOMB0GA1UdDgQWBBTzX3t1SeN4QTlqILZ8a0xcyT1YQTAf
BgNVHSMEGDAWgBTzX3t1SeN4QTlqILZ8a0xcyT1YQTAMBgNVHRMEBTADAQH/MA0G
CSqGSIb3DQEBBQUAA4ICAQB3HP6jRXmpdSDYwkI9aOzQeJH4x/HDi/PNMOqdNje/
xdNzUy7HZWVYvvSVBkZ1DG/ghcUtn/wJ5m6/orBn3ncnyzgdKyXbWLnCGX/V61Pg
IPQpuGo7HzegenYaZqWz7NeXxGaVo3/y1HxUEmvmvSiioQM1cifGtz9/aJsJtIkn
5umlImenKKEV1Ly7R3Uz3Cjz/Ffac1o+xU+8NpkLF/67fkazJCCMH6dCWgy6SL3A
OB6oKFIVJhw8SD8vptHaDbpJSRBxifMtcop/85XUNDCvO4zkvlB1vPZ9ZmYZQdyL
43NA+PkoKy0qrdaQZZMq1Jdp+Lx/yeX255/zkkILp43jFyd44rZ+TfGEQN1WHlp4
RMjvoGwOX1uGlfoGkRSgBRj7TBn514VYMbXu687RS4WY2v+kny3PUFv/ZBfYSyjo
NZnU4Dce9kstgv+gaKMQRPcyL+4vZU7DV8nBIfNFilCXKMN/VnNBKtDV52qmtOsV
ghgai+QE09w15x7dg+44gIfWFHxNhvHKys+s4BBN8fSxAMLOsb5NGFHE8x58RAkm
IYWHjyPM6zB5AUPw1b2A0sDtQmCqoxJZfZUKrzyLz8gS2aVujRYN13KklHQ3EKfk
eKBG2KXVBe5rjMN/7Anf1MtXxsTY6O8qIuHZ5QlXhSYzE41yIlPlG6d7AGnTiBIg
eg==
-----END CERTIFICATE-----
