Certificate:
    Data:
        Version: 3 (0x2)
        Serial Number: 1111638594 (0x42424242)
        Signature Algorithm: ecdsa-with-SHA256
        Issuer: C=GB, ST=London, L=London, O=Google, OU=Eng, CN=FakeCertificateAuthority
        Validity
            Not Before: Feb 13 11:42:37 2018 GMT
            Not After : Dec 23 11:42:37 2027 GMT
        Subject: C=GB, ST=London, L=London, O=Google, OU=Eng, CN=FakeIntermediateAuthority
        Subject Public Key Info:
            Public Key Algorithm: id-ecPublicKey
                Public-Key: (256 bit)
                pub:
                    04:f1:bf:2d:e8:8c:66:40:e3:a8:d1:54:e0:42:49:
                    02:cb:dd:47:08:85:c2:67:41:4c:eb:f7:87:cd:8d:
                    a3:09:c8:18:cc:2e:30:53:16:32:aa:d5:9c:08:73:
                    c6:76:fa:fa:3a:38:e9:34:35:9c:51:d1:ee:12:81:
                    5d:98:5f:5d:5d
                ASN1 OID: prime256v1
                NIST CURVE: P-256
        X509v3 extensions:
            X509v3 Subject Key Identifier: 
                01:02:03:04
            X509v3 Authority Key Identifier: 
                01:02:03:04
            X509v3 Basic Constraints: critical
                CA:TRUE, pathlen:10
            X509v3 Key Usage: critical
                Digital Signature, Non Repudiation, Key Encipherment, Data Encipherment, Key Agreement, Certificate Sign, CRL Sign, Encipher Only, Decipher Only
            X509v3 Name Constraints: 
                Permitted:
                  DNS:.xyzzy.pem
    Signature Algorithm: ecdsa-with-SHA256
    Signature Value:
        30:45:02:20:3f:0a:40:60:b6:9e:ea:a5:cd:eb:e4:0e:7c:bc:
        40:22:b2:e2:14:07:e8:ab:fa:4a:85:2a:41:18:20:f0:31:1a:
        02:21:00:a4:64:91:6d:79:47:79:0f:16:06:62:a9:88:8b:92:
        6d:40:fa:54:cb:c9:4f:bc:3f:53:27:e5:cd:12:16:53:7a
-----BEGIN CERTIFICATE-----
MIICNzCCAd2gAwIBAgIEQkJCQjAKBggqhkjOPQQDAjBxMQswCQYDVQQGEwJHQjEP
MA0GA1UECBMGTG9uZG9uMQ8wDQYDVQQHEwZMb25kb24xDzANBgNVBAoTBkdvb2ds
ZTEMMAoGA1UECxMDRW5nMSEwHwYDVQQDExhGYWtlQ2VydGlmaWNhdGVBdXRob3Jp
dHkwHhcNMTgwMjEzMTE0MjM3WhcNMjcxMjIzMTE0MjM3WjByMQswCQYDVQQGEwJH
QjEPMA0GA1UECBMGTG9uZG9uMQ8wDQYDVQQHEwZMb25kb24xDzANBgNVBAoTBkdv
b2dsZTEMMAoGA1UECxMDRW5nMSIwIAYDVQQDExlGYWtlSW50ZXJtZWRpYXRlQXV0
aG9yaXR5MFkwEwYHKoZIzj0CAQYIKoZIzj0DAQcDQgAE8b8t6IxmQOOo0VTgQkkC
y91HCIXCZ0FM6/eHzY2jCcgYzC4wUxYyqtWcCHPGdvr6OjjpNDWcUdHuEoFdmF9d
XaNiMGAwDQYDVR0OBAYEBAECAwQwDwYDVR0jBAgwBoAEAQIDBDASBgNVHRMBAf8E
CDAGAQH/AgEKMA8GA1UdDwEB/wQFAwMH/4AwGQYDVR0eBBIwEKAOMAyCCi54eXp6
eS5wZW0wCgYIKoZIzj0EAwIDSAAwRQIgPwpAYLae6qXN6+QOfLxAIrLiFAfoq/pK
hSpBGCDwMRoCIQCkZJFteUd5DxYGYqmIi5JtQPpUy8lPvD9TJ+XNEhZTeg==
-----END CERTIFICATE-----
